target datalayout = "e-m:e-p270:32:32-p271:32:32-p272:64:64-i64:64-i128:128-f80:128-n8:16:32:64-S128"
target triple = "x86_64-pc-linux-gnu"

%struct.b2Vec2 = type { float, float }
%struct.b2JointId = type { i32, i16, i16 }
%struct.b2JointSim = type { i32, i32, i32, i32, %struct.b2Vec2, %struct.b2Vec2, float, float, float, float, %union.anon }
%union.anon = type { %struct.b2PrismaticJoint }
%struct.b2PrismaticJoint = type { %struct.b2Vec2, %struct.b2Vec2, float, float, float, float, float, float, float, float, float, float, float, i32, i32, %struct.b2Vec2, %struct.b2Vec2, %struct.b2Vec2, %struct.b2Vec2, float, float, %struct.b2Softness, i8, i8, i8 }
%struct.b2Softness = type { float, float, float }

; Function Attrs: nounwind uwtable
define void @b2PrismaticJoint_EnableLimit(i64 %0, i1 noundef zeroext %1) #0 {
  %3 = alloca %struct.b2JointId, align 4
  %4 = alloca i8, align 1
  %5 = alloca ptr, align 8
  store i64 %0, ptr %3, align 4
  %6 = zext i1 %1 to i8
  store i8 %6, ptr %4, align 1, !tbaa !3
  call void @llvm.lifetime.start.p0(i64 8, ptr %5) #8
  %7 = load i64, ptr %3, align 4
  %8 = call ptr @b2GetJointSimCheckType(i64 %7, i32 noundef 4)
  store ptr %8, ptr %5, align 8, !tbaa !7
  %9 = load i8, ptr %4, align 1, !tbaa !3, !range !10, !noundef !11
  %10 = trunc i8 %9 to i1
  %11 = zext i1 %10 to i32
  %12 = load ptr, ptr %5, align 8, !tbaa !7
  %13 = getelementptr inbounds nuw %struct.b2JointSim, ptr %12, i32 0, i32 10
  %14 = getelementptr inbounds nuw %struct.b2PrismaticJoint, ptr %13, i32 0, i32 23
  %15 = load i8, ptr %14, align 1, !tbaa !12, !range !10, !noundef !11
  %16 = trunc i8 %15 to i1
  %17 = zext i1 %16 to i32
  %18 = icmp ne i32 %11, %17
  br i1 %18, label %19, label %32

19:                                               ; preds = %2
  %20 = load i8, ptr %4, align 1, !tbaa !3, !range !10, !noundef !11
  %21 = trunc i8 %20 to i1
  %22 = load ptr, ptr %5, align 8, !tbaa !7
  %23 = getelementptr inbounds nuw %struct.b2JointSim, ptr %22, i32 0, i32 10
  %24 = getelementptr inbounds nuw %struct.b2PrismaticJoint, ptr %23, i32 0, i32 23
  %25 = zext i1 %21 to i8
  store i8 %25, ptr %24, align 1, !tbaa !12
  %26 = load ptr, ptr %5, align 8, !tbaa !7
  %27 = getelementptr inbounds nuw %struct.b2JointSim, ptr %26, i32 0, i32 10
  %28 = getelementptr inbounds nuw %struct.b2PrismaticJoint, ptr %27, i32 0, i32 4
  store float 0.000000e+00, ptr %28, align 4, !tbaa !12
  %29 = load ptr, ptr %5, align 8, !tbaa !7
  %30 = getelementptr inbounds nuw %struct.b2JointSim, ptr %29, i32 0, i32 10
  %31 = getelementptr inbounds nuw %struct.b2PrismaticJoint, ptr %30, i32 0, i32 5
  store float 0.000000e+00, ptr %31, align 4, !tbaa !12
  br label %32

32:                                               ; preds = %19, %2
  call void @llvm.lifetime.end.p0(i64 8, ptr %5) #8
  ret void
}